target datalayout = "e-m:e-p270:32:32-p271:32:32-p272:64:64-i64:64-i128:128-f80:128-n8:16:32:64-S128"
target triple = "x86_64-pc-linux-gnu"

; Function Attrs: nounwind uwtable
define internal void @SDL_Convert61To21(ptr noundef %0, ptr noundef %1, i32 noundef %2) #0 {
  %4 = alloca ptr, align 8
  %5 = alloca ptr, align 8
  %6 = alloca i32, align 4
  %7 = alloca i32, align 4
  %8 = alloca float, align 4
  %9 = alloca float, align 4
  %10 = alloca float, align 4
  %11 = alloca float, align 4
  store ptr %0, ptr %4, align 8
  store ptr %1, ptr %5, align 8
  store i32 %2, ptr %6, align 4
  call void @llvm.lifetime.start.p0(i64 4, ptr %7) #7
  %12 = load i32, ptr %6, align 4
  store i32 %12, ptr %7, align 4
  br label %13

13:                                               ; preds = %62, %3
  %14 = load i32, ptr %7, align 4
  %15 = icmp ne i32 %14, 0
  br i1 %15, label %16, label %69

16:                                               ; preds = %13
  call void @llvm.lifetime.start.p0(i64 4, ptr %8) #7
  %17 = load ptr, ptr %5, align 8
  %18 = getelementptr inbounds float, ptr %17, i64 2
  %19 = load float, ptr %18, align 4
  store float %19, ptr %8, align 4
  call void @llvm.lifetime.start.p0(i64 4, ptr %9) #7
  %20 = load ptr, ptr %5, align 8
  %21 = getelementptr inbounds float, ptr %20, i64 4
  %22 = load float, ptr %21, align 4
  store float %22, ptr %9, align 4
  call void @llvm.lifetime.start.p0(i64 4, ptr %10) #7
  %23 = load ptr, ptr %5, align 8
  %24 = getelementptr inbounds float, ptr %23, i64 5
  %25 = load float, ptr %24, align 4
  store float %25, ptr %10, align 4
  call void @llvm.lifetime.start.p0(i64 4, ptr %11) #7
  %26 = load ptr, ptr %5, align 8
  %27 = getelementptr inbounds float, ptr %26, i64 6
  %28 = load float, ptr %27, align 4
  store float %28, ptr %11, align 4
  %29 = load ptr, ptr %5, align 8
  %30 = getelementptr inbounds float, ptr %29, i64 0
  %31 = load float, ptr %30, align 4
  %32 = load float, ptr %8, align 4
  %33 = fmul float %32, 0x3FC83126E0000000
  %34 = call float @llvm.fmuladd.f32(float %31, float 0x3FD126E980000000, float %33)
  %35 = load float, ptr %9, align 4
  %36 = call float @llvm.fmuladd.f32(float %35, float 0x3FC83126E0000000, float %34)
  %37 = load float, ptr %10, align 4
  %38 = call float @llvm.fmuladd.f32(float %37, float 0x3FCF5C2900000000, float %36)
  %39 = load float, ptr %11, align 4
  %40 = call float @llvm.fmuladd.f32(float %39, float 0x3FBBE76C80000000, float %38)
  %41 = load ptr, ptr %4, align 8
  %42 = getelementptr inbounds float, ptr %41, i64 0
  store float %40, ptr %42, align 4
  %43 = load ptr, ptr %5, align 8
  %44 = getelementptr inbounds float, ptr %43, i64 1
  %45 = load float, ptr %44, align 4
  %46 = load float, ptr %8, align 4
  %47 = fmul float %46, 0x3FC83126E0000000
  %48 = call float @llvm.fmuladd.f32(float %45, float 0x3FD126E980000000, float %47)
  %49 = load float, ptr %9, align 4
  %50 = call float @llvm.fmuladd.f32(float %49, float 0x3FC83126E0000000, float %48)
  %51 = load float, ptr %10, align 4
  %52 = call float @llvm.fmuladd.f32(float %51, float 0x3FBBE76C80000000, float %50)
  %53 = load float, ptr %11, align 4
  %54 = call float @llvm.fmuladd.f32(float %53, float 0x3FCF5C2900000000, float %52)
  %55 = load ptr, ptr %4, align 8
  %56 = getelementptr inbounds float, ptr %55, i64 1
  store float %54, ptr %56, align 4
  %57 = load ptr, ptr %5, align 8
  %58 = getelementptr inbounds float, ptr %57, i64 3
  %59 = load float, ptr %58, align 4
  %60 = load ptr, ptr %4, align 8
  %61 = getelementptr inbounds float, ptr %60, i64 2
  store float %59, ptr %61, align 4
  call void @llvm.lifetime.end.p0(i64 4, ptr %11) #7
  call void @llvm.lifetime.end.p0(i64 4, ptr %10) #7
  call void @llvm.lifetime.end.p0(i64 4, ptr %9) #7
  call void @llvm.lifetime.end.p0(i64 4, ptr %8) #7
  br label %62

62:                                               ; preds = %16
  %63 = load i32, ptr %7, align 4
  %64 = add nsw i32 %63, -1
  store i32 %64, ptr %7, align 4
  %65 = load ptr, ptr %5, align 8
  %66 = getelementptr inbounds float, ptr %65, i64 7
  store ptr %66, ptr %5, align 8
  %67 = load ptr, ptr %4, align 8
  %68 = getelementptr inbounds float, ptr %67, i64 3
  store ptr %68, ptr %4, align 8
  br label %13, !llvm.loop !88

69:                                               ; preds = %13
  call void @llvm.lifetime.end.p0(i64 4, ptr %7) #7
  ret void
}