; Function Attrs: nofree norecurse nosync nounwind memory(argmem: readwrite) uwtable
define internal void @SDL_Convert61To21(ptr noundef writeonly captures(none) %0, ptr noundef readonly captures(none) %1, i32 noundef %2) #5 {
  %.not24 = icmp eq i32 %2, 0
  br i1 %.not24, label %._crit_edge, label %.lr.ph

.lr.ph:                                           ; preds = %3, %.lr.ph
  %.027 = phi ptr [ %30, %.lr.ph ], [ %0, %3 ]
  %.02226 = phi ptr [ %29, %.lr.ph ], [ %1, %3 ]
  %.02325 = phi i32 [ %28, %.lr.ph ], [ %2, %3 ]
  %4 = getelementptr inbounds nuw i8, ptr %.02226, i64 8
  %5 = load float, ptr %4, align 4
  %6 = getelementptr inbounds nuw i8, ptr %.02226, i64 16
  %7 = load float, ptr %6, align 4
  %8 = getelementptr inbounds nuw i8, ptr %.02226, i64 20
  %9 = load float, ptr %8, align 4
  %10 = getelementptr inbounds nuw i8, ptr %.02226, i64 24
  %11 = load float, ptr %10, align 4
  %12 = load float, ptr %.02226, align 4
  %13 = fmul float %5, 0x3FC83126E0000000
  %14 = tail call float @llvm.fmuladd.f32(float %12, float 0x3FD126E980000000, float %13)
  %15 = tail call float @llvm.fmuladd.f32(float %7, float 0x3FC83126E0000000, float %14)
  %16 = tail call float @llvm.fmuladd.f32(float %9, float 0x3FCF5C2900000000, float %15)
  %17 = tail call float @llvm.fmuladd.f32(float %11, float 0x3FBBE76C80000000, float %16)
  store float %17, ptr %.027, align 4
  %18 = getelementptr inbounds nuw i8, ptr %.02226, i64 4
  %19 = load float, ptr %18, align 4
  %20 = tail call float @llvm.fmuladd.f32(float %19, float 0x3FD126E980000000, float %13)
  %21 = tail call float @llvm.fmuladd.f32(float %7, float 0x3FC83126E0000000, float %20)
  %22 = tail call float @llvm.fmuladd.f32(float %9, float 0x3FBBE76C80000000, float %21)
  %23 = tail call float @llvm.fmuladd.f32(float %11, float 0x3FCF5C2900000000, float %22)
  %24 = getelementptr inbounds nuw i8, ptr %.027, i64 4
  store float %23, ptr %24, align 4
  %25 = getelementptr inbounds nuw i8, ptr %.02226, i64 12
  %26 = load float, ptr %25, align 4
  %27 = getelementptr inbounds nuw i8, ptr %.027, i64 8
  store float %26, ptr %27, align 4
  %28 = add nsw i32 %.02325, -1
  %29 = getelementptr inbounds nuw i8, ptr %.02226, i64 28
  %30 = getelementptr inbounds nuw i8, ptr %.027, i64 12
  %.not = icmp eq i32 %28, 0
  br i1 %.not, label %._crit_edge, label %.lr.ph, !llvm.loop !94

._crit_edge:                                      ; preds = %.lr.ph, %3
  ret void
}